; Function Attrs: nounwind uwtable
define internal void @_set_solid_attr(ptr nocapture noundef writeonly %0, ptr nocapture readnone %1, ptr nocapture noundef readonly %2) #0 {
  %4 = load i8, ptr %2, align 8, !tbaa !163
  switch i8 %4, label %14 [
    i8 40, label %5
    i8 41, label %10
  ]

5:                                                ; preds = %3
  %6 = getelementptr inbounds nuw i8, ptr %0, i64 576
  %7 = getelementptr inbounds nuw i8, ptr %2, i64 8
  %8 = load i32, ptr %7, align 8, !tbaa !165
  %9 = tail call i24 @lv_color_hex(i32 noundef %8) #9
  store i24 %9, ptr %6, align 8
  br label %14

10:                                               ; preds = %3
  %11 = getelementptr inbounds nuw i8, ptr %2, i64 8
  %12 = load float, ptr %11, align 8, !tbaa !165
  %13 = getelementptr inbounds nuw i8, ptr %0, i64 580
  store float %12, ptr %13, align 4, !tbaa !237
  br label %14

14:                                               ; preds = %10, %5, %3
  ret void
}